Certificate:
    Data:
        Version: 3 (0x2)
        Serial Number:
            c8:7c:a3:41:6f:29:f3:25
        Signature Algorithm: sha1WithRSAEncryption
        Issuer: C=JP, ST=shizuoka, O=coco8864, OU=phantom, CN=www40405u.sakura.ne.jp/emailAddress=coco8864@aroma.ocn.ne.jp
        Validity
            Not Before: Aug 24 15:11:35 2013 GMT
            Not After : Aug 19 15:11:35 2033 GMT
        Subject: C=JP, ST=shizuoka, O=coco8864, OU=phantom, CN=www40405u.sakura.ne.jp/emailAddress=coco8864@aroma.ocn.ne.jp
        Subject Public Key Info:
            Public Key Algorithm: rsaEncryption
                Public-Key: (2048 bit)
                Modulus:
                    00:ad:76:8b:8c:59:40:fc:37:e5:d1:4d:15:5d:ba:
                    5a:8c:83:52:71:3a:b2:b4:66:a1:91:82:01:72:4f:
                    f0:ac:89:35:03:dc:16:23:49:21:1e:45:2e:0f:63:
                    6d:c6:fb:e7:d0:5c:55:9d:55:3c:d4:73:a4:43:f2:
                    92:7d:2e:7d:30:5b:27:f4:47:de:5c:eb:13:08:90:
                    2a:f1:c4:54:fc:e5:e0:f4:ab:40:f8:3d:b1:0e:09:
                    96:6d:de:ff:a2:bd:83:b1:fd:86:05:9e:56:4d:ea:
                    b2:e9:f0:d1:fb:a1:bf:0c:0d:b4:51:30:b1:5a:d6:
                    39:0a:f0:a4:9a:bf:df:d7:e8:ce:2a:d9:e5:56:df:
                    08:ad:bd:48:d0:61:a2:46:e3:2d:3a:da:7a:e5:af:
                    b7:11:5a:43:86:8f:84:3e:2a:1f:67:0f:59:09:f4:
                    30:ca:fb:ee:35:c8:8f:74:35:30:7e:63:91:0d:16:
                    9b:96:f0:dc:27:74:87:5b:7d:ac:df:c0:56:ec:ba:
                    82:5c:bf:56:57:f0:49:72:c1:c7:18:8c:e3:7d:75:
                    58:0d:83:26:6a:c7:40:56:dc:6e:53:02:1f:76:db:
                    2d:d8:6c:c2:eb:ec:01:be:b1:e1:7b:29:42:37:b8:
                    20:a7:c1:a8:30:56:7f:33:da:96:ba:b9:10:55:e0:
                    0f:19
                Exponent: 65537 (0x10001)
        X509v3 extensions:
            X509v3 Subject Key Identifier: 
                7B:68:E2:9A:60:EB:C3:40:60:07:94:F9:EF:84:8C:42:17:7F:14:A9
            X509v3 Authority Key Identifier: 
                keyid:7B:68:E2:9A:60:EB:C3:40:60:07:94:F9:EF:84:8C:42:17:7F:14:A9

            X509v3 Basic Constraints: 
                CA:TRUE
            Netscape Cert Type: 
                SSL CA, S/MIME CA
    Signature Algorithm: sha1WithRSAEncryption
        28:c1:cf:04:d3:be:7f:72:30:4c:b5:39:ec:0c:8f:92:8e:c6:
        e2:ad:27:3b:43:c0:e3:15:22:17:8f:58:f9:f4:ec:a0:64:22:
        00:52:28:0b:32:43:4f:73:34:fb:03:5b:90:62:5c:9b:5b:96:
        56:42:88:b6:2d:27:55:73:83:61:25:95:68:63:22:38:2b:6b:
        38:e2:27:64:f7:07:29:2f:98:75:c5:3f:5a:16:8a:95:96:fb:
        99:10:c1:38:c3:ab:b3:94:e0:76:68:ea:22:cc:5c:7d:ac:6d:
        b3:3a:5f:a3:41:7a:17:d5:cf:fe:89:cd:bc:70:c3:6f:d8:07:
        70:51:b4:23:70:56:f0:5d:67:17:06:34:e4:ed:c8:0a:eb:b6:
        e8:b6:58:a9:d7:0b:8b:04:22:f0:90:74:2b:53:ed:8e:0e:71:
        cf:65:83:e9:d6:ee:7d:a1:9c:86:74:ac:9d:f3:2a:8d:13:f6:
        ea:c4:49:87:dc:85:fe:be:d8:fb:00:58:f4:08:b9:fa:ec:29:
        52:0a:6c:7f:0c:3e:13:1d:3a:01:39:71:a9:19:6a:4d:99:6e:
        dc:15:12:42:5c:8c:bd:1c:5c:c9:f5:48:cf:39:6b:55:d4:4e:
        13:51:a3:2b:13:30:91:a1:e4:f4:78:24:08:56:ed:fa:29:00:
        1c:43:5a:4d
-----BEGIN CERTIFICATE-----
MIIEBjCCAu6gAwIBAgIJAMh8o0FvKfMlMA0GCSqGSIb3DQEBBQUAMIGPMQswCQYD
VQQGEwJKUDERMA8GA1UECAwIc2hpenVva2ExETAPBgNVBAoMCGNvY284ODY0MRAw
DgYDVQQLDAdwaGFudG9tMR8wHQYDVQQDDBZ3d3c0MDQwNXUuc2FrdXJhLm5lLmpw
MScwJQYJKoZIhvcNAQkBFhhjb2NvODg2NEBhcm9tYS5vY24ubmUuanAwHhcNMTMw
ODI0MTUxMTM1WhcNMzMwODE5MTUxMTM1WjCBjzELMAkGA1UEBhMCSlAxETAPBgNV
BAgMCHNoaXp1b2thMREwDwYDVQQKDAhjb2NvODg2NDEQMA4GA1UECwwHcGhhbnRv
bTEfMB0GA1UEAwwWd3d3NDA0MDV1LnNha3VyYS5uZS5qcDEnMCUGCSqGSIb3DQEJ
ARYYY29jbzg4NjRAYXJvbWEub2NuLm5lLmpwMIIBIjANBgkqhkiG9w0BAQEFAAOC
AQ8AMIIBCgKCAQEArXaLjFlA/Dfl0U0VXbpajINScTqytGahkYIBck/wrIk1A9wW
I0khHkUuD2Ntxvvn0FxVnVU81HOkQ/KSfS59MFsn9EfeXOsTCJAq8cRU/OXg9KtA
+D2xDgmWbd7/or2Dsf2GBZ5WTeqy6fDR+6G/DA20UTCxWtY5CvCkmr/f1+jOKtnl
Vt8Irb1I0GGiRuMtOtp65a+3EVpDho+EPiofZw9ZCfQwyvvuNciPdDUwfmORDRab
lvDcJ3SHW32s38BW7LqCXL9WV/BJcsHHGIzjfXVYDYMmasdAVtxuUwIfdtst2GzC
6+wBvrHheylCN7ggp8GoMFZ/M9qWurkQVeAPGQIDAQABo2MwYTAdBgNVHQ4EFgQU
e2jimmDrw0BgB5T574SMQhd/FKkwHwYDVR0jBBgwFoAUe2jimmDrw0BgB5T574SM
Qhd/FKkwDAYDVR0TBAUwAwEB/zARBglghkgBhvhCAQEEBAMCAQYwDQYJKoZIhvcN
AQEFBQADggEBACjBzwTTvn9yMEy1OewMj5KOxuKtJztDwOMVIhePWPn07KBkIgBS
KAsyQ09zNPsDW5BiXJtbllZCiLYtJ1Vzg2EllWhjIjgrazjiJ2T3BykvmHXFP1oW
ipWW+5kQwTjDq7OU4HZo6iLMXH2sbbM6X6NBehfVz/6Jzbxww2/YB3BRtCNwVvBd
ZxcGNOTtyArrtui2WKnXC4sEIvCQdCtT7Y4Occ9lg+nW7n2hnIZ0rJ3zKo0T9urE
SYfchf6+2PsAWPQIufrsKVIKbH8MPhMdOgE5cakZak2ZbtwVEkJcjL0cXMn1SM85
a1XUThNRoysTMJGh5PR4JAhW7fopABxDWk0=
-----END CERTIFICATE-----
