Certificate:
    Data:
        Version: 3 (0x2)
        Serial Number:
            c8:7c:a3:41:6f:29:f3:18
        Signature Algorithm: sha1WithRSAEncryption
        Issuer: C=JP, ST=Shizuoka, O=coco8864, OU=phantom Project, CN=www40405u.sakura.ne.jp/emailAddress=coco8864@aroma.ocn.ne.jp
        Validity
            Not Before: Aug 24 05:45:59 2013 GMT
            Not After : Aug 19 05:45:59 2033 GMT
        Subject: C=JP, ST=Shizuoka, O=coco8864, OU=phantom Project, CN=www40405u.sakura.ne.jp/emailAddress=coco8864@aroma.ocn.ne.jp
        Subject Public Key Info:
            Public Key Algorithm: rsaEncryption
                Public-Key: (2048 bit)
                Modulus:
                    00:c1:67:ed:3b:52:df:57:36:fb:35:af:44:b8:e2:
                    f3:c8:34:be:1f:c9:07:1d:ec:ae:f4:c8:cc:6d:61:
                    b5:57:99:a1:91:c8:f7:1f:37:ca:e9:06:2f:f4:e2:
                    73:9a:32:f5:82:16:20:24:68:e3:0d:11:d0:b6:0b:
                    06:88:44:7e:8a:fc:97:68:28:02:90:d7:9e:8e:99:
                    f0:06:78:b3:83:32:53:10:4a:8c:4e:ca:f0:d5:7e:
                    14:fd:1a:cf:c6:56:77:37:31:a3:cd:5e:33:4f:7e:
                    7b:54:e4:d9:30:63:c7:f7:c4:d2:77:da:a7:17:82:
                    3a:4a:78:54:c9:06:46:ba:87:f8:7e:5c:a5:a4:1e:
                    72:ca:48:4d:13:2e:c8:46:56:b0:f4:ea:3e:57:8f:
                    2d:f5:9b:9e:e9:1b:37:00:58:74:dd:eb:bf:5d:4f:
                    74:a6:2f:2e:3b:3f:15:9c:12:28:0e:0f:52:1a:33:
                    30:85:c9:56:37:b2:93:d5:3f:43:c7:7a:99:90:32:
                    23:6b:0c:fd:85:ff:04:c2:95:1d:ed:c6:0f:85:d9:
                    b6:5e:77:d0:3d:0c:97:c5:bf:a1:9c:9b:4d:d7:ff:
                    39:68:7f:11:73:75:87:68:72:45:25:70:64:6a:3d:
                    d0:53:14:0d:72:52:9c:e6:6d:bd:85:ce:2e:b0:fa:
                    96:7b
                Exponent: 65537 (0x10001)
        X509v3 extensions:
            X509v3 Subject Key Identifier: 
                2C:E5:0B:C7:E2:FA:2A:85:05:5E:EA:A3:74:E5:2A:BE:18:E3:21:8E
            X509v3 Authority Key Identifier: 
                keyid:2C:E5:0B:C7:E2:FA:2A:85:05:5E:EA:A3:74:E5:2A:BE:18:E3:21:8E

            X509v3 Basic Constraints: 
                CA:TRUE
    Signature Algorithm: sha1WithRSAEncryption
        4d:e4:72:1a:2e:50:52:47:c5:c9:44:73:f6:d9:81:7f:44:aa:
        80:b8:50:5a:9b:c4:35:b7:dc:e0:c5:c9:48:a3:87:41:b7:87:
        da:f0:82:83:34:f6:3c:48:62:51:6a:95:93:e5:52:65:45:23:
        6a:71:ef:87:6a:3e:5a:85:49:f1:24:8e:bc:2e:db:cb:c0:d8:
        35:b0:97:f1:51:ad:00:b6:f1:57:09:8f:e6:07:72:82:fb:43:
        9b:44:07:17:fb:06:3a:ed:a8:d7:7c:f8:b2:e3:67:14:52:73:
        db:30:f4:da:c6:b8:2f:5b:1d:f3:cf:a1:7d:46:37:d4:73:55:
        d9:ab:f1:ba:ad:63:de:cd:23:b5:17:c4:ee:30:a7:73:c9:d5:
        2a:f8:c0:22:9e:21:49:77:df:1a:4b:30:4e:20:b4:35:17:48:
        19:95:e6:8d:1d:5d:83:f3:43:2e:52:cb:27:7a:c5:c6:8a:93:
        4f:b3:43:80:c9:bb:23:84:9d:40:e3:a4:1f:79:ad:41:1f:9b:
        1c:10:38:be:d8:27:18:1f:9e:f9:88:ac:85:18:68:7b:fb:55:
        1e:aa:9b:15:dd:f5:90:4c:99:bc:d8:13:76:c1:cd:c0:53:60:
        45:40:3a:7c:9a:8e:a1:59:d2:b2:22:de:ee:fa:38:40:a8:21:
        80:44:74:82
-----BEGIN CERTIFICATE-----
MIIEAzCCAuugAwIBAgIJAMh8o0FvKfMYMA0GCSqGSIb3DQEBBQUAMIGXMQswCQYD
VQQGEwJKUDERMA8GA1UECAwIU2hpenVva2ExETAPBgNVBAoMCGNvY284ODY0MRgw
FgYDVQQLDA9waGFudG9tIFByb2plY3QxHzAdBgNVBAMMFnd3dzQwNDA1dS5zYWt1
cmEubmUuanAxJzAlBgkqhkiG9w0BCQEWGGNvY284ODY0QGFyb21hLm9jbi5uZS5q
cDAeFw0xMzA4MjQwNTQ1NTlaFw0zMzA4MTkwNTQ1NTlaMIGXMQswCQYDVQQGEwJK
UDERMA8GA1UECAwIU2hpenVva2ExETAPBgNVBAoMCGNvY284ODY0MRgwFgYDVQQL
DA9waGFudG9tIFByb2plY3QxHzAdBgNVBAMMFnd3dzQwNDA1dS5zYWt1cmEubmUu
anAxJzAlBgkqhkiG9w0BCQEWGGNvY284ODY0QGFyb21hLm9jbi5uZS5qcDCCASIw
DQYJKoZIhvcNAQEBBQADggEPADCCAQoCggEBAMFn7TtS31c2+zWvRLji88g0vh/J
Bx3srvTIzG1htVeZoZHI9x83yukGL/Tic5oy9YIWICRo4w0R0LYLBohEfor8l2go
ApDXno6Z8AZ4s4MyUxBKjE7K8NV+FP0az8ZWdzcxo81eM09+e1Tk2TBjx/fE0nfa
pxeCOkp4VMkGRrqH+H5cpaQecspITRMuyEZWsPTqPlePLfWbnukbNwBYdN3rv11P
dKYvLjs/FZwSKA4PUhozMIXJVjeyk9U/Q8d6mZAyI2sM/YX/BMKVHe3GD4XZtl53
0D0Ml8W/oZybTdf/OWh/EXN1h2hyRSVwZGo90FMUDXJSnOZtvYXOLrD6lnsCAwEA
AaNQME4wHQYDVR0OBBYEFCzlC8fi+iqFBV7qo3TlKr4Y4yGOMB8GA1UdIwQYMBaA
FCzlC8fi+iqFBV7qo3TlKr4Y4yGOMAwGA1UdEwQFMAMBAf8wDQYJKoZIhvcNAQEF
BQADggEBAE3kchouUFJHxclEc/bZgX9EqoC4UFqbxDW33ODFyUijh0G3h9rwgoM0
9jxIYlFqlZPlUmVFI2px74dqPlqFSfEkjrwu28vA2DWwl/FRrQC28VcJj+YHcoL7
Q5tEBxf7BjrtqNd8+LLjZxRSc9sw9NrGuC9bHfPPoX1GN9RzVdmr8bqtY97NI7UX
xO4wp3PJ1Sr4wCKeIUl33xpLME4gtDUXSBmV5o0dXYPzQy5Syyd6xcaKk0+zQ4DJ
uyOEnUDjpB95rUEfmxwQOL7YJxgfnvmIrIUYaHv7VR6qmxXd9ZBMmbzYE3bBzcBT
YEVAOnyajqFZ0rIi3u76OECoIYBEdII=
-----END CERTIFICATE-----
